target datalayout = "e-m:e-p270:32:32-p271:32:32-p272:64:64-i64:64-i128:128-f80:128-n8:16:32:64-S128"
target triple = "x86_64-pc-linux-gnu"

%struct.assoc_mgr_lock_t = type { i32, i32, i32, i32, i32, i32, i32 }
%struct.job_record = type { i32, ptr, ptr, ptr, ptr, i16, i32, i32, i32, ptr, i32, ptr, ptr, i16, ptr, double, i64, ptr, ptr, ptr, ptr, ptr, ptr, i32, ptr, i32, i64, i64, i32, i32, ptr, i16, i64, i64, i8, i32, ptr, ptr, ptr, ptr, ptr, ptr, ptr, ptr, i32, ptr, ptr, i32, ptr, i32, ptr, i32, ptr, i32, ptr, ptr, ptr, ptr, ptr, ptr, i32, i16, i64, ptr, ptr, ptr, ptr, %struct.acct_policy_limit_set_t, i16, ptr, ptr, ptr, ptr, ptr, i32, ptr, ptr, ptr, ptr, ptr, i32, i32, ptr, ptr, ptr, i16, ptr, ptr, i8, ptr, ptr, i64, i64, i8, i32, i32, i8, i32, ptr, i32, i64, i32, ptr, ptr, ptr, i8, i16, i64, i32, ptr, ptr, ptr, ptr, ptr, i16, i32, ptr, ptr, ptr, ptr, i32, ptr, i32, i16, i64, ptr, i32, i32, ptr, i64, ptr, ptr, i64, i32, i32, i64, i32, i32, ptr, ptr, ptr, ptr, ptr, ptr, ptr, ptr, ptr, ptr, ptr, ptr, i32, ptr, i16, i16, i16, i16, ptr, i32, i32, i8, i64 }
%struct.acct_policy_limit_set_t = type { i16, i16, ptr }
%struct.job_descriptor = type { ptr, ptr, ptr, ptr, i16, i32, i32, ptr, ptr, ptr, ptr, i64, i64, ptr, ptr, ptr, ptr, i16, ptr, ptr, i16, ptr, i16, i32, i32, i32, ptr, ptr, i64, i32, ptr, i64, ptr, %struct.slurm_hash_t, i32, ptr, ptr, ptr, i64, i64, i32, i32, ptr, i16, i32, ptr, ptr, i16, ptr, ptr, i16, ptr, ptr, ptr, i16, ptr, ptr, ptr, i32, i32, i16, i8, ptr, i16, i8, ptr, i16, ptr, i32, i32, ptr, i16, ptr, i16, ptr, i16, ptr, i16, ptr, ptr, %struct.slurm_hash_t, i16, i32, ptr, i32, ptr, i32, i32, i32, ptr, ptr, ptr, ptr, ptr, ptr, i32, i16, i16, i16, i16, ptr, i16, i32, i32, i32, i32, i16, i16, i16, i16, i16, i16, i16, i16, i16, i16, i16, i64, i32, ptr, i32, i16, ptr, ptr, ptr, ptr, ptr, i32, ptr, i16, ptr, ptr, i16 }
%struct.slurm_hash_t = type { i8, [32 x i8] }
%struct.het_job_limits = type { ptr, ptr }

@slurmctld_tres_cnt = external global i32, align 4
@__const.acct_policy_validate_het_job.locks = private unnamed_addr constant %struct.assoc_mgr_lock_t { i32 1, i32 0, i32 1, i32 0, i32 1, i32 0, i32 0 }, align 4
@g_tres_count = external global i32, align 4
@.str.2 = private unnamed_addr constant [14 x i8] c"acct_policy.c\00", align 1
@__func__.acct_policy_validate_het_job = private unnamed_addr constant [29 x i8] c"acct_policy_validate_het_job\00", align 1

; Function Attrs: nounwind uwtable
define dso_local zeroext i1 @acct_policy_validate_het_job(ptr noundef %0) #0 {
  %2 = alloca ptr, align 8
  %3 = alloca %struct.assoc_mgr_lock_t, align 4
  %4 = alloca ptr, align 8
  %5 = alloca ptr, align 8
  %6 = alloca ptr, align 8
  %7 = alloca ptr, align 8
  %8 = alloca ptr, align 8
  %9 = alloca ptr, align 8
  %10 = alloca ptr, align 8
  %11 = alloca i8, align 1
  %12 = alloca %struct.job_descriptor, align 8
  %13 = alloca i8, align 1
  %14 = alloca %struct.acct_policy_limit_set_t, align 8
  %15 = alloca i32, align 4
  %16 = alloca i32, align 4
  %17 = alloca i32, align 4
  %18 = alloca i32, align 4
  store ptr %0, ptr %2, align 8
  call void @llvm.lifetime.start.p0(i64 28, ptr %3) #8
  call void @llvm.memcpy.p0.p0.i64(ptr align 4 %3, ptr align 4 @__const.acct_policy_validate_het_job.locks, i64 28, i1 false)
  call void @llvm.lifetime.start.p0(i64 8, ptr %4) #8
  store ptr null, ptr %4, align 8
  call void @llvm.lifetime.start.p0(i64 8, ptr %5) #8
  call void @llvm.lifetime.start.p0(i64 8, ptr %6) #8
  call void @llvm.lifetime.start.p0(i64 8, ptr %7) #8
  call void @llvm.lifetime.start.p0(i64 8, ptr %8) #8
  call void @llvm.lifetime.start.p0(i64 8, ptr %9) #8
  call void @llvm.lifetime.start.p0(i64 8, ptr %10) #8
  call void @llvm.lifetime.start.p0(i64 1, ptr %11) #8
  store i8 1, ptr %11, align 1
  call void @llvm.lifetime.start.p0(i64 912, ptr %12) #8
  call void @llvm.lifetime.start.p0(i64 1, ptr %13) #8
  store i8 1, ptr %13, align 1
  call void @llvm.lifetime.start.p0(i64 16, ptr %14) #8
  call void @llvm.lifetime.start.p0(i64 4, ptr %15) #8
  call void @llvm.lifetime.start.p0(i64 4, ptr %16) #8
  call void @llvm.lifetime.start.p0(i64 4, ptr %17) #8
  store i32 0, ptr %17, align 4
  call void @llvm.lifetime.start.p0(i64 4, ptr %18) #8
  %19 = load i32, ptr @g_tres_count, align 4
  %20 = zext i32 %19 to i64
  %21 = mul i64 8, %20
  %22 = trunc i64 %21 to i32
  store i32 %22, ptr %18, align 4
  call void @llvm.memset.p0.i64(ptr align 8 %14, i8 0, i64 16, i1 false)
  %23 = load i32, ptr @slurmctld_tres_cnt, align 4
  %24 = sext i32 %23 to i64
  %25 = mul i64 2, %24
  %26 = call ptr @slurm_xcalloc(i64 noundef 1, i64 noundef %25, i1 noundef zeroext true, i1 noundef zeroext false, ptr noundef @.str.2, i32 noundef 3684, ptr noundef @__func__.acct_policy_validate_het_job)
  %27 = getelementptr inbounds nuw %struct.acct_policy_limit_set_t, ptr %14, i32 0, i32 2
  store ptr %26, ptr %27, align 8
  %28 = call ptr @list_create(ptr noundef @xfree_ptr)
  store ptr %28, ptr %4, align 8
  %29 = load ptr, ptr %2, align 8
  %30 = call ptr @list_iterator_create(ptr noundef %29)
  store ptr %30, ptr %5, align 8
  call void @assoc_mgr_lock(ptr noundef %3)
  br label %31

31:                                               ; preds = %35, %1
  %32 = load ptr, ptr %5, align 8
  %33 = call ptr @list_next(ptr noundef %32)
  store ptr %33, ptr %7, align 8
  %34 = icmp ne ptr %33, null
  br i1 %34, label %35, label %47

35:                                               ; preds = %31
  %36 = call ptr @slurm_xcalloc(i64 noundef 1, i64 noundef 16, i1 noundef zeroext true, i1 noundef zeroext false, ptr noundef @.str.2, i32 noundef 3691, ptr noundef @__func__.acct_policy_validate_het_job)
  store ptr %36, ptr %9, align 8
  %37 = load ptr, ptr %7, align 8
  %38 = getelementptr inbounds nuw %struct.job_record, ptr %37, i32 0, i32 11
  %39 = load ptr, ptr %38, align 8
  %40 = load ptr, ptr %9, align 8
  %41 = getelementptr inbounds nuw %struct.het_job_limits, ptr %40, i32 0, i32 0
  store ptr %39, ptr %41, align 8
  %42 = load ptr, ptr %7, align 8
  %43 = load ptr, ptr %9, align 8
  %44 = getelementptr inbounds nuw %struct.het_job_limits, ptr %43, i32 0, i32 1
  store ptr %42, ptr %44, align 8
  %45 = load ptr, ptr %4, align 8
  %46 = load ptr, ptr %9, align 8
  call void @list_append(ptr noundef %45, ptr noundef %46)
  br label %31, !llvm.loop !22

47:                                               ; preds = %31
  call void @assoc_mgr_unlock(ptr noundef %3)
  %48 = load ptr, ptr %5, align 8
  call void @list_iterator_destroy(ptr noundef %48)
  %49 = load ptr, ptr %4, align 8
  %50 = call ptr @list_iterator_create(ptr noundef %49)
  store ptr %50, ptr %5, align 8
  br label %51

51:                                               ; preds = %173, %47
  %52 = load ptr, ptr %5, align 8
  %53 = call ptr @list_next(ptr noundef %52)
  store ptr %53, ptr %9, align 8
  %54 = icmp ne ptr %53, null
  br i1 %54, label %55, label %174

55:                                               ; preds = %51
  %56 = load ptr, ptr %9, align 8
  %57 = getelementptr inbounds nuw %struct.het_job_limits, ptr %56, i32 0, i32 1
  %58 = load ptr, ptr %57, align 8
  store ptr %58, ptr %7, align 8
  %59 = load i8, ptr %13, align 1, !range !8, !noundef !9
  %60 = trunc i8 %59 to i1
  br i1 %60, label %61, label %74

61:                                               ; preds = %55
  store i8 0, ptr %13, align 1
  %62 = load ptr, ptr %7, align 8
  %63 = getelementptr inbounds nuw %struct.job_record, ptr %62, i32 0, i32 133
  %64 = load i32, ptr %63, align 8
  %65 = getelementptr inbounds nuw %struct.job_descriptor, ptr %12, i32 0, i32 87
  store i32 %64, ptr %65, align 4
  %66 = load i32, ptr %18, align 4
  %67 = sext i32 %66 to i64
  %68 = call ptr @slurm_xcalloc(i64 noundef 1, i64 noundef %67, i1 noundef zeroext true, i1 noundef zeroext false, ptr noundef @.str.2, i32 noundef 3705, ptr noundef @__func__.acct_policy_validate_het_job)
  %69 = getelementptr inbounds nuw %struct.job_descriptor, ptr %12, i32 0, i32 126
  store ptr %68, ptr %69, align 8
  %70 = load ptr, ptr %7, align 8
  %71 = getelementptr inbounds nuw %struct.job_record, ptr %70, i32 0, i32 150
  %72 = load i32, ptr %71, align 8
  %73 = getelementptr inbounds nuw %struct.job_descriptor, ptr %12, i32 0, i32 95
  store i32 %72, ptr %73, align 8
  br label %74

74:                                               ; preds = %61, %55
  %75 = load ptr, ptr %9, align 8
  %76 = getelementptr inbounds nuw %struct.het_job_limits, ptr %75, i32 0, i32 0
  %77 = load ptr, ptr %76, align 8
  %78 = icmp ne ptr %77, null
  br i1 %78, label %79, label %173

79:                                               ; preds = %74
  store i32 1, ptr %16, align 4
  %80 = getelementptr inbounds nuw %struct.job_descriptor, ptr %12, i32 0, i32 126
  %81 = load ptr, ptr %80, align 8
  %82 = load ptr, ptr %7, align 8
  %83 = getelementptr inbounds nuw %struct.job_record, ptr %82, i32 0, i32 144
  %84 = load ptr, ptr %83, align 8
  %85 = load i32, ptr %18, align 4
  %86 = sext i32 %85 to i64
  call void @llvm.memcpy.p0.p0.i64(ptr align 8 %81, ptr align 8 %84, i64 %86, i1 false)
  %87 = load ptr, ptr %4, align 8
  %88 = call ptr @list_iterator_create(ptr noundef %87)
  store ptr %88, ptr %6, align 8
  br label %89

89:                                               ; preds = %132, %105, %79
  %90 = load ptr, ptr %6, align 8
  %91 = call ptr @list_next(ptr noundef %90)
  store ptr %91, ptr %10, align 8
  %92 = icmp ne ptr %91, null
  br i1 %92, label %93, label %135

93:                                               ; preds = %89
  %94 = load ptr, ptr %10, align 8
  %95 = load ptr, ptr %9, align 8
  %96 = icmp eq ptr %94, %95
  br i1 %96, label %105, label %97

97:                                               ; preds = %93
  %98 = load ptr, ptr %10, align 8
  %99 = getelementptr inbounds nuw %struct.het_job_limits, ptr %98, i32 0, i32 0
  %100 = load ptr, ptr %99, align 8
  %101 = load ptr, ptr %9, align 8
  %102 = getelementptr inbounds nuw %struct.het_job_limits, ptr %101, i32 0, i32 0
  %103 = load ptr, ptr %102, align 8
  %104 = icmp ne ptr %100, %103
  br i1 %104, label %105, label %106

105:                                              ; preds = %97, %93
  br label %89, !llvm.loop !23

106:                                              ; preds = %97
  %107 = load ptr, ptr %10, align 8
  %108 = getelementptr inbounds nuw %struct.het_job_limits, ptr %107, i32 0, i32 1
  %109 = load ptr, ptr %108, align 8
  store ptr %109, ptr %8, align 8
  store i32 0, ptr %15, align 4
  br label %110

110:                                              ; preds = %129, %106
  %111 = load i32, ptr %15, align 4
  %112 = load i32, ptr @g_tres_count, align 4
  %113 = icmp ult i32 %111, %112
  br i1 %113, label %114, label %132

114:                                              ; preds = %110
  %115 = load ptr, ptr %8, align 8
  %116 = getelementptr inbounds nuw %struct.job_record, ptr %115, i32 0, i32 144
  %117 = load ptr, ptr %116, align 8
  %118 = load i32, ptr %15, align 4
  %119 = sext i32 %118 to i64
  %120 = getelementptr inbounds i64, ptr %117, i64 %119
  %121 = load i64, ptr %120, align 8
  %122 = getelementptr inbounds nuw %struct.job_descriptor, ptr %12, i32 0, i32 126
  %123 = load ptr, ptr %122, align 8
  %124 = load i32, ptr %15, align 4
  %125 = sext i32 %124 to i64
  %126 = getelementptr inbounds i64, ptr %123, i64 %125
  %127 = load i64, ptr %126, align 8
  %128 = add i64 %127, %121
  store i64 %128, ptr %126, align 8
  br label %129

129:                                              ; preds = %114
  %130 = load i32, ptr %15, align 4
  %131 = add nsw i32 %130, 1
  store i32 %131, ptr %15, align 4
  br label %110, !llvm.loop !24

132:                                              ; preds = %110
  %133 = load i32, ptr %16, align 4
  %134 = add nsw i32 %133, 1
  store i32 %134, ptr %16, align 4
  br label %89, !llvm.loop !23

135:                                              ; preds = %89
  %136 = load ptr, ptr %6, align 8
  call void @list_iterator_destroy(ptr noundef %136)
  %137 = load i32, ptr %16, align 4
  %138 = icmp sgt i32 %137, 1
  br i1 %138, label %139, label %172

139:                                              ; preds = %135
  %140 = load i32, ptr %16, align 4
  %141 = sext i32 %140 to i64
  %142 = call ptr @bit_alloc(i64 noundef %141)
  %143 = getelementptr inbounds nuw %struct.job_descriptor, ptr %12, i32 0, i32 9
  store ptr %142, ptr %143, align 8
  %144 = load ptr, ptr %7, align 8
  %145 = getelementptr inbounds nuw %struct.job_record, ptr %144, i32 0, i32 89
  %146 = load ptr, ptr %145, align 8
  %147 = load ptr, ptr %7, align 8
  %148 = getelementptr inbounds nuw %struct.job_record, ptr %147, i32 0, i32 87
  %149 = load ptr, ptr %148, align 8
  %150 = load ptr, ptr %9, align 8
  %151 = getelementptr inbounds nuw %struct.het_job_limits, ptr %150, i32 0, i32 0
  %152 = load ptr, ptr %151, align 8
  %153 = load ptr, ptr %7, align 8
  %154 = getelementptr inbounds nuw %struct.job_record, ptr %153, i32 0, i32 103
  %155 = load ptr, ptr %154, align 8
  %156 = call zeroext i1 @acct_policy_validate(ptr noundef %12, ptr noundef %146, ptr noundef %149, ptr noundef %152, ptr noundef %155, ptr noundef %17, ptr noundef %14, i1 noundef zeroext false)
  %157 = zext i1 %156 to i8
  store i8 %157, ptr %11, align 1
  br label %158

158:                                              ; preds = %139
  %159 = getelementptr inbounds nuw %struct.job_descriptor, ptr %12, i32 0, i32 9
  %160 = load ptr, ptr %159, align 8
  %161 = icmp ne ptr %160, null
  br i1 %161, label %162, label %164

162:                                              ; preds = %158
  %163 = getelementptr inbounds nuw %struct.job_descriptor, ptr %12, i32 0, i32 9
  call void @slurm_bit_free(ptr noundef %163)
  br label %164

164:                                              ; preds = %162, %158
  %165 = getelementptr inbounds nuw %struct.job_descriptor, ptr %12, i32 0, i32 9
  store ptr null, ptr %165, align 8
  br label %166

166:                                              ; preds = %164
  br label %167

167:                                              ; preds = %166
  %168 = load i8, ptr %11, align 1, !range !8, !noundef !9
  %169 = trunc i8 %168 to i1
  br i1 %169, label %171, label %170

170:                                              ; preds = %167
  br label %174

171:                                              ; preds = %167
  br label %172

172:                                              ; preds = %171, %135
  br label %173

173:                                              ; preds = %172, %74
  br label %51, !llvm.loop !25

174:                                              ; preds = %170, %51
  %175 = load ptr, ptr %5, align 8
  call void @list_iterator_destroy(ptr noundef %175)
  %176 = getelementptr inbounds nuw %struct.job_descriptor, ptr %12, i32 0, i32 126
  call void @slurm_xfree(ptr noundef %176)
  br label %177

177:                                              ; preds = %174
  %178 = load ptr, ptr %4, align 8
  %179 = icmp ne ptr %178, null
  br i1 %179, label %180, label %182

180:                                              ; preds = %177
  %181 = load ptr, ptr %4, align 8
  call void @list_destroy(ptr noundef %181)
  br label %182

182:                                              ; preds = %180, %177
  store ptr null, ptr %4, align 8
  br label %183

183:                                              ; preds = %182
  br label %184

184:                                              ; preds = %183
  %185 = getelementptr inbounds nuw %struct.acct_policy_limit_set_t, ptr %14, i32 0, i32 2
  call void @slurm_xfree(ptr noundef %185)
  %186 = load i8, ptr %11, align 1, !range !8, !noundef !9
  %187 = trunc i8 %186 to i1
  call void @llvm.lifetime.end.p0(i64 4, ptr %18) #8
  call void @llvm.lifetime.end.p0(i64 4, ptr %17) #8
  call void @llvm.lifetime.end.p0(i64 4, ptr %16) #8
  call void @llvm.lifetime.end.p0(i64 4, ptr %15) #8
  call void @llvm.lifetime.end.p0(i64 16, ptr %14) #8
  call void @llvm.lifetime.end.p0(i64 1, ptr %13) #8
  call void @llvm.lifetime.end.p0(i64 912, ptr %12) #8
  call void @llvm.lifetime.end.p0(i64 1, ptr %11) #8
  call void @llvm.lifetime.end.p0(i64 8, ptr %10) #8
  call void @llvm.lifetime.end.p0(i64 8, ptr %9) #8
  call void @llvm.lifetime.end.p0(i64 8, ptr %8) #8
  call void @llvm.lifetime.end.p0(i64 8, ptr %7) #8
  call void @llvm.lifetime.end.p0(i64 8, ptr %6) #8
  call void @llvm.lifetime.end.p0(i64 8, ptr %5) #8
  call void @llvm.lifetime.end.p0(i64 8, ptr %4) #8
  call void @llvm.lifetime.end.p0(i64 28, ptr %3) #8
  ret i1 %187
}