; Function Attrs: nounwind uwtable
define dso_local noundef zeroext i1 @acct_policy_validate_het_job(ptr noundef %0) local_unnamed_addr #0 {
  %2 = alloca %struct.assoc_mgr_lock_t, align 4
  %3 = alloca %struct.job_descriptor, align 8
  %4 = alloca %struct.acct_policy_limit_set_t, align 8
  %5 = alloca i32, align 4
  call void @llvm.lifetime.start.p0(i64 28, ptr nonnull %2) #15
  call void @llvm.memcpy.p0.p0.i64(ptr noundef nonnull align 4 dereferenceable(28) %2, ptr noundef nonnull align 4 dereferenceable(28) @__const.acct_policy_validate_het_job.locks, i64 28, i1 false)
  call void @llvm.lifetime.start.p0(i64 912, ptr nonnull %3) #15
  call void @llvm.lifetime.start.p0(i64 16, ptr nonnull %4) #15
  call void @llvm.lifetime.start.p0(i64 4, ptr nonnull %5) #15
  store i32 0, ptr %5, align 4
  %6 = load i32, ptr @g_tres_count, align 4
  %7 = shl i32 %6, 3
  store i64 0, ptr %4, align 8
  %8 = load i32, ptr @slurmctld_tres_cnt, align 4
  %9 = sext i32 %8 to i64
  %10 = shl nsw i64 %9, 1
  %11 = tail call ptr @slurm_xcalloc(i64 noundef 1, i64 noundef %10, i1 noundef zeroext true, i1 noundef zeroext false, ptr noundef nonnull @.str.2, i32 noundef 3684, ptr noundef nonnull @__func__.acct_policy_validate_het_job) #15
  %12 = getelementptr inbounds nuw i8, ptr %4, i64 8
  store ptr %11, ptr %12, align 8
  %13 = tail call ptr @list_create(ptr noundef nonnull @xfree_ptr) #15
  %14 = tail call ptr @list_iterator_create(ptr noundef %0) #15
  call void @assoc_mgr_lock(ptr noundef nonnull %2) #15
  %15 = call ptr @list_next(ptr noundef %14) #15
  %.not58 = icmp eq ptr %15, null
  br i1 %.not58, label %._crit_edge, label %.lr.ph

.lr.ph:                                           ; preds = %1, %.lr.ph
  %16 = phi ptr [ %21, %.lr.ph ], [ %15, %1 ]
  %17 = call ptr @slurm_xcalloc(i64 noundef 1, i64 noundef 16, i1 noundef zeroext true, i1 noundef zeroext false, ptr noundef nonnull @.str.2, i32 noundef 3691, ptr noundef nonnull @__func__.acct_policy_validate_het_job) #15
  %18 = getelementptr inbounds nuw i8, ptr %16, i64 72
  %19 = load ptr, ptr %18, align 8
  store ptr %19, ptr %17, align 8
  %20 = getelementptr inbounds nuw i8, ptr %17, i64 8
  store ptr %16, ptr %20, align 8
  call void @list_append(ptr noundef %13, ptr noundef nonnull %17) #15
  %21 = call ptr @list_next(ptr noundef %14) #15
  %.not = icmp eq ptr %21, null
  br i1 %.not, label %._crit_edge, label %.lr.ph, !llvm.loop !23

._crit_edge:                                      ; preds = %.lr.ph, %1
  call void @assoc_mgr_unlock(ptr noundef nonnull %2) #15
  call void @list_iterator_destroy(ptr noundef %14) #15
  %22 = call ptr @list_iterator_create(ptr noundef %13) #15
  %23 = call ptr @list_next(ptr noundef %22) #15
  %.not5170 = icmp eq ptr %23, null
  br i1 %.not5170, label %._crit_edge75, label %.lr.ph74

.lr.ph74:                                         ; preds = %._crit_edge
  %24 = getelementptr inbounds nuw i8, ptr %3, i64 660
  %25 = sext i32 %7 to i64
  %26 = getelementptr inbounds nuw i8, ptr %3, i64 856
  %27 = getelementptr inbounds nuw i8, ptr %3, i64 720
  %28 = getelementptr inbounds nuw i8, ptr %3, i64 64
  br label %29

29:                                               ; preds = %.lr.ph74, %89
  %30 = phi ptr [ %23, %.lr.ph74 ], [ %90, %89 ]
  %.04471 = phi i1 [ true, %.lr.ph74 ], [ false, %89 ]
  %31 = getelementptr inbounds nuw i8, ptr %30, i64 8
  %32 = load ptr, ptr %31, align 8
  br i1 %.04471, label %33, label %39

33:                                               ; preds = %29
  %34 = getelementptr inbounds nuw i8, ptr %32, i64 976
  %35 = load i32, ptr %34, align 8
  store i32 %35, ptr %24, align 4
  %36 = call ptr @slurm_xcalloc(i64 noundef 1, i64 noundef %25, i1 noundef zeroext true, i1 noundef zeroext false, ptr noundef nonnull @.str.2, i32 noundef 3705, ptr noundef nonnull @__func__.acct_policy_validate_het_job) #15
  store ptr %36, ptr %26, align 8
  %37 = getelementptr inbounds nuw i8, ptr %32, i64 1096
  %38 = load i32, ptr %37, align 8
  store i32 %38, ptr %27, align 8
  br label %39

39:                                               ; preds = %33, %29
  %40 = load ptr, ptr %30, align 8
  %.not52 = icmp eq ptr %40, null
  br i1 %.not52, label %89, label %41

41:                                               ; preds = %39
  %42 = load ptr, ptr %26, align 8
  %43 = getelementptr inbounds nuw i8, ptr %32, i64 1048
  %44 = load ptr, ptr %43, align 8
  call void @llvm.memcpy.p0.p0.i64(ptr align 8 %42, ptr align 8 %44, i64 %25, i1 false)
  %45 = call ptr @list_iterator_create(ptr noundef %13) #15
  %46 = call ptr @list_next(ptr noundef %45) #15
  %.not535967 = icmp eq ptr %46, null
  br i1 %.not535967, label %.outer._crit_edge.thread87, label %.lr.ph60

.outer._crit_edge.thread87:                       ; preds = %41
  call void @list_iterator_destroy(ptr noundef %45) #15
  br label %89

.lr.ph60:                                         ; preds = %41, %.outer
  %47 = phi ptr [ %73, %.outer ], [ %46, %41 ]
  %.0.ph68 = phi i32 [ %72, %.outer ], [ 1, %41 ]
  br label %48

48:                                               ; preds = %.lr.ph60, %54
  %49 = phi ptr [ %47, %.lr.ph60 ], [ %55, %54 ]
  %50 = icmp eq ptr %49, %30
  br i1 %50, label %54, label %51

51:                                               ; preds = %48
  %52 = load ptr, ptr %49, align 8
  %53 = load ptr, ptr %30, align 8
  %.not56 = icmp eq ptr %52, %53
  br i1 %.not56, label %56, label %54

54:                                               ; preds = %51, %48
  %55 = call ptr @list_next(ptr noundef %45) #15
  %.not53 = icmp eq ptr %55, null
  br i1 %.not53, label %.outer._crit_edge, label %48, !llvm.loop !24

56:                                               ; preds = %51
  %57 = load i32, ptr @g_tres_count, align 4
  %.not79 = icmp eq i32 %57, 0
  br i1 %.not79, label %.outer, label %.lr.ph65

.lr.ph65:                                         ; preds = %56
  %58 = getelementptr inbounds nuw i8, ptr %49, i64 8
  %59 = load ptr, ptr %58, align 8
  %60 = getelementptr inbounds nuw i8, ptr %59, i64 1048
  br label %61

61:                                               ; preds = %.lr.ph65, %61
  %indvars.iv = phi i64 [ 0, %.lr.ph65 ], [ %indvars.iv.next, %61 ]
  %62 = load ptr, ptr %60, align 8
  %63 = getelementptr inbounds nuw i64, ptr %62, i64 %indvars.iv
  %64 = load i64, ptr %63, align 8
  %65 = load ptr, ptr %26, align 8
  %66 = getelementptr inbounds nuw i64, ptr %65, i64 %indvars.iv
  %67 = load i64, ptr %66, align 8
  %68 = add i64 %67, %64
  store i64 %68, ptr %66, align 8
  %indvars.iv.next = add nuw nsw i64 %indvars.iv, 1
  %69 = load i32, ptr @g_tres_count, align 4
  %70 = zext i32 %69 to i64
  %71 = icmp samesign ult i64 %indvars.iv.next, %70
  br i1 %71, label %61, label %.outer, !llvm.loop !25

.outer:                                           ; preds = %61, %56
  %72 = add nuw nsw i32 %.0.ph68, 1
  %73 = call ptr @list_next(ptr noundef %45) #15
  %.not5359 = icmp eq ptr %73, null
  br i1 %.not5359, label %.outer._crit_edge.thread, label %.lr.ph60, !llvm.loop !24

.outer._crit_edge.thread:                         ; preds = %.outer
  call void @list_iterator_destroy(ptr noundef %45) #15
  br label %75

.outer._crit_edge:                                ; preds = %54
  call void @list_iterator_destroy(ptr noundef %45) #15
  %74 = icmp samesign ugt i32 %.0.ph68, 1
  br i1 %74, label %75, label %89

75:                                               ; preds = %.outer._crit_edge.thread, %.outer._crit_edge
  %.0.ph.lcssa86 = phi i32 [ %72, %.outer._crit_edge.thread ], [ %.0.ph68, %.outer._crit_edge ]
  %76 = zext nneg i32 %.0.ph.lcssa86 to i64
  %77 = call ptr @bit_alloc(i64 noundef %76) #15
  store ptr %77, ptr %28, align 8
  %78 = getelementptr inbounds nuw i8, ptr %32, i64 672
  %79 = load ptr, ptr %78, align 8
  %80 = getelementptr inbounds nuw i8, ptr %32, i64 656
  %81 = load ptr, ptr %80, align 8
  %82 = load ptr, ptr %30, align 8
  %83 = getelementptr inbounds nuw i8, ptr %32, i64 768
  %84 = load ptr, ptr %83, align 8
  %85 = call zeroext i1 @acct_policy_validate(ptr noundef nonnull %3, ptr noundef %79, ptr noundef %81, ptr noundef %82, ptr noundef %84, ptr noundef nonnull %5, ptr noundef nonnull %4, i1 noundef zeroext false)
  %86 = load ptr, ptr %28, align 8
  %.not54 = icmp eq ptr %86, null
  br i1 %.not54, label %88, label %87

87:                                               ; preds = %75
  call void @slurm_bit_free(ptr noundef nonnull %28) #15
  br label %88

88:                                               ; preds = %87, %75
  store ptr null, ptr %28, align 8
  br i1 %85, label %89, label %._crit_edge75

89:                                               ; preds = %.outer._crit_edge.thread87, %.outer._crit_edge, %88, %39
  %90 = call ptr @list_next(ptr noundef %22) #15
  %.not51 = icmp eq ptr %90, null
  br i1 %.not51, label %._crit_edge75, label %29, !llvm.loop !26

._crit_edge75:                                    ; preds = %89, %88, %._crit_edge
  %.not51.lcssa = phi i1 [ true, %._crit_edge ], [ false, %88 ], [ true, %89 ]
  call void @list_iterator_destroy(ptr noundef %22) #15
  %91 = getelementptr inbounds nuw i8, ptr %3, i64 856
  call void @slurm_xfree(ptr noundef nonnull %91) #15
  %.not55 = icmp eq ptr %13, null
  br i1 %.not55, label %93, label %92

92:                                               ; preds = %._crit_edge75
  call void @list_destroy(ptr noundef nonnull %13) #15
  br label %93

93:                                               ; preds = %92, %._crit_edge75
  call void @slurm_xfree(ptr noundef nonnull %12) #15
  call void @llvm.lifetime.end.p0(i64 4, ptr nonnull %5) #15
  call void @llvm.lifetime.end.p0(i64 16, ptr nonnull %4) #15
  call void @llvm.lifetime.end.p0(i64 912, ptr nonnull %3) #15
  call void @llvm.lifetime.end.p0(i64 28, ptr nonnull %2) #15
  ret i1 %.not51.lcssa
}